; ModuleID = '16/3.c'
source_filename = "16/3.c"
target datalayout = "e-m:e-p270:32:32-p271:32:32-p272:64:64-i64:64-f80:128-n8:16:32:64-S128"
target triple = "x86_64-pc-linux-gnu"

@.str = private unnamed_addr constant [3 x i8] c"%d\00", align 1

; Function Attrs: noinline nounwind uwtable
define dso_local void @f(i32 %0, i32 %1) #0 {
  %3 = alloca i32, align 4
  %4 = alloca i32, align 4
  %5 = alloca i32, align 4
  store i32 %0, i32* %3, align 4
  store i32 %1, i32* %4, align 4
  %6 = load i32, i32* %4, align 4
  %7 = sub nsw i32 %6, 1
  %8 = sitofp i32 %7 to double
  %9 = call double @pow(double 1.000000e+01, double %8) #3
  %10 = fptosi double %9 to i32
  store i32 %10, i32* %5, align 4
  %11 = load i32, i32* %4, align 4
  %12 = icmp ne i32 %11, 1
  br i1 %12, label %13, label %19

13:                                               ; preds = %2
  %14 = load i32, i32* %3, align 4
  %15 = load i32, i32* %5, align 4
  %16 = srem i32 %14, %15
  %17 = load i32, i32* %4, align 4
  %18 = sub nsw i32 %17, 1
  call void @f(i32 %16, i32 %18)
  br label %19

19:                                               ; preds = %13, %2
  %20 = load i32, i32* %3, align 4
  %21 = load i32, i32* %5, align 4
  %22 = sdiv i32 %20, %21
  %23 = call i32 (i8*, ...) @printf(i8* getelementptr inbounds ([3 x i8], [3 x i8]* @.str, i64 0, i64 0), i32 %22)
  ret void
}

; Function Attrs: nounwind
declare dso_local double @pow(double, double) #1

declare dso_local i32 @printf(i8*, ...) #2

; Function Attrs: noinline nounwind uwtable
define dso_local i32 @main() #0 {
  %1 = alloca i32, align 4
  %2 = alloca i32, align 4
  %3 = call i32 (i8*, ...) @__isoc99_scanf(i8* getelementptr inbounds ([3 x i8], [3 x i8]* @.str, i64 0, i64 0), i32* %1)
  %4 = load i32, i32* %1, align 4
  %5 = sitofp i32 %4 to double
  %6 = call double @log(double %5) #3
  %7 = call double @log(double 1.000000e+01) #3
  %8 = fdiv double %6, %7
  %9 = fptosi double %8 to i32
  %10 = add nsw i32 %9, 1
  store i32 %10, i32* %2, align 4
  %11 = load i32, i32* %1, align 4
  %12 = load i32, i32* %2, align 4
  call void @f(i32 %11, i32 %12)
  ret i32 0
}

declare dso_local i32 @__isoc99_scanf(i8*, ...) #2

; Function Attrs: nounwind
declare dso_local double @log(double) #1


!llvm.module.flags = !{!0}
!llvm.ident = !{!1}

!0 = !{i32 1, !"wchar_size", i32 4}
!1 = !{!"clang version 10.0.0-4ubuntu1 "}
