; ModuleID = 'source-C-CXX/15/3.c'
source_filename = "source-C-CXX/15/3.c"
target datalayout = "e-m:e-p270:32:32-p271:32:32-p272:64:64-i64:64-f80:128-n8:16:32:64-S128"
target triple = "x86_64-pc-linux-gnu"

@.str = private unnamed_addr constant [3 x i8] c"%d\00", align 1

; Function Attrs: nofree nounwind sspstrong uwtable
define dso_local void @f(i32 %0, i32 %1) local_unnamed_addr #0 {
  %3 = add nsw i32 %1, -1
  %4 = sitofp i32 %3 to double
  %5 = tail call double @pow(double 1.000000e+01, double %4) #4
  %6 = fptosi double %5 to i32
  %7 = icmp eq i32 %1, 1
  %8 = sdiv i32 %0, %6
  %9 = srem i32 %0, %6
  br i1 %7, label %11, label %10

10:                                               ; preds = %2
  tail call void @f(i32 %9, i32 %3)
  br label %11

11:                                               ; preds = %10, %2
  %12 = tail call i32 (i8*, ...) @printf(i8* nonnull dereferenceable(1) getelementptr inbounds ([3 x i8], [3 x i8]* @.str, i64 0, i64 0), i32 %8)
  ret void
}

; Function Attrs: argmemonly mustprogress nofree nosync nounwind willreturn
declare void @llvm.lifetime.start.p0i8(i64 immarg, i8* nocapture) #1

; Function Attrs: mustprogress nofree nounwind willreturn
declare double @pow(double, double) local_unnamed_addr #2

; Function Attrs: nofree nounwind
declare noundef i32 @printf(i8* nocapture noundef readonly, ...) local_unnamed_addr #3

; Function Attrs: argmemonly mustprogress nofree nosync nounwind willreturn
declare void @llvm.lifetime.end.p0i8(i64 immarg, i8* nocapture) #1

; Function Attrs: nofree nounwind sspstrong uwtable
define dso_local i32 @main() local_unnamed_addr #0 {
  %1 = alloca i32, align 4
  %2 = bitcast i32* %1 to i8*
  call void @llvm.lifetime.start.p0i8(i64 4, i8* nonnull %2) #4
  %3 = call i32 (i8*, ...) @__isoc99_scanf(i8* getelementptr inbounds ([3 x i8], [3 x i8]* @.str, i64 0, i64 0), i32* nonnull %1)
  %4 = load i32, i32* %1, align 4, !tbaa !5
  %5 = sitofp i32 %4 to double
  %6 = call double @log(double %5) #4
  %7 = fdiv double %6, 0x40026BB1BBB55516
  %8 = fptosi double %7 to i32
  %9 = add nsw i32 %8, 1
  %10 = load i32, i32* %1, align 4, !tbaa !5
  call void @f(i32 %10, i32 %9)
  call void @llvm.lifetime.end.p0i8(i64 4, i8* nonnull %2) #4
  ret i32 0
}

; Function Attrs: nofree nounwind
declare noundef i32 @__isoc99_scanf(i8* nocapture noundef readonly, ...) local_unnamed_addr #3

; Function Attrs: mustprogress nofree nounwind willreturn
declare double @log(double) local_unnamed_addr #2


!llvm.module.flags = !{!0, !1, !2, !3}
!llvm.ident = !{!4}

!0 = !{i32 1, !"wchar_size", i32 4}
!1 = !{i32 7, !"PIC Level", i32 2}
!2 = !{i32 7, !"PIE Level", i32 2}
!3 = !{i32 7, !"uwtable", i32 1}
!4 = !{!"clang version 13.0.0"}
!5 = !{!6, !6, i64 0}
!6 = !{!"int", !7, i64 0}
!7 = !{!"omnipotent char", !8, i64 0}
!8 = !{!"Simple C/C++ TBAA"}
